; Function Attrs: nounwind uwtable
define ptr @l_Lean_Elab_InfoTree_deepestNodesM___at_Lean_Elab_InfoTree_deepestNodes___spec__1___rarg(ptr noundef %0, ptr noundef %1) #0 {
  tail call void @lean_inc_heartbeat() #7
  %3 = tail call noalias ptr @mi_malloc_small(i64 noundef 32) #7
  %4 = icmp eq ptr %3, null
  br i1 %4, label %5, label %lean_alloc_closure.exit

5:                                                ; preds = %2
  tail call void @lean_internal_panic_out_of_memory() #8
  unreachable

lean_alloc_closure.exit:                          ; preds = %2
  %6 = getelementptr inbounds nuw i8, ptr %3, i64 4
  store i32 1, ptr %3, align 4, !tbaa !4
  store i32 -184549344, ptr %6, align 4
  %7 = getelementptr inbounds nuw i8, ptr %3, i64 8
  store ptr @l_Lean_Elab_InfoTree_deepestNodesM___at_Lean_Elab_InfoTree_deepestNodes___spec__1___rarg___lambda__1___boxed, ptr %7, align 8, !tbaa !9
  %8 = getelementptr inbounds nuw i8, ptr %3, i64 16
  store i16 5, ptr %8, align 8, !tbaa !11
  %9 = getelementptr inbounds nuw i8, ptr %3, i64 18
  store i16 1, ptr %9, align 2, !tbaa !11
  %10 = getelementptr inbounds nuw i8, ptr %3, i64 24
  store ptr %0, ptr %10, align 8, !tbaa !9
  %11 = tail call ptr @l_Lean_Elab_InfoTree_collectNodesBottomUpM___at_Lean_Elab_InfoTree_deepestNodes___spec__2___rarg(ptr noundef nonnull %3, ptr noundef %1)
  ret ptr %11
}